; Function Attrs: mustprogress nofree norecurse nosync nounwind willreturn memory(argmem: write) uwtable
define void @Cec_SeqSynthesisSetDefaultParams(ptr noundef writeonly captures(none) initializes((0, 44)) %0) local_unnamed_addr #0 {
  %2 = getelementptr inbounds nuw i8, ptr %0, i64 8
  store i64 0, ptr %0, align 4
  store i32 1000, ptr %2, align 4
  %3 = getelementptr inbounds nuw i8, ptr %0, i64 12
  store i32 1, ptr %3, align 4
  %4 = getelementptr inbounds nuw i8, ptr %0, i64 16
  store i32 -1, ptr %4, align 4
  %5 = getelementptr inbounds nuw i8, ptr %0, i64 20
  store i32 1, ptr %5, align 4
  %6 = getelementptr inbounds nuw i8, ptr %0, i64 24
  store i32 1, ptr %6, align 4
  %7 = getelementptr inbounds nuw i8, ptr %0, i64 28
  store i32 0, ptr %7, align 4
  %8 = getelementptr inbounds nuw i8, ptr %0, i64 32
  store i32 100, ptr %8, align 4
  %9 = getelementptr inbounds nuw i8, ptr %0, i64 36
  store i32 0, ptr %9, align 4
  %10 = getelementptr inbounds nuw i8, ptr %0, i64 40
  store i32 0, ptr %10, align 4
  ret void
}